target datalayout = "e-m:e-p270:32:32-p271:32:32-p272:64:64-i64:64-i128:128-f80:128-n8:16:32:64-S128"
target triple = "x86_64-pc-linux-gnu"

%struct.StratumTableRecord = type { ptr, i32, i32 }
%struct.FileTableRecord = type { i32, ptr, ptr, i32 }

@stratumIndex = internal global i32 0, align 4
@fileTable = internal global ptr null, align 8
@stratumTable = internal global ptr null, align 8
@sourceMapIsValid = internal global i8 0, align 1

; Function Attrs: nounwind uwtable
define internal i32 @patternMatch(ptr noundef %0, ptr noundef %1) #0 {
  %3 = alloca i32, align 4
  %4 = alloca ptr, align 8
  %5 = alloca ptr, align 8
  %6 = alloca i32, align 4
  %7 = alloca i32, align 4
  %8 = alloca ptr, align 8
  %9 = alloca i32, align 4
  store ptr %0, ptr %4, align 8
  store ptr %1, ptr %5, align 8
  %10 = load ptr, ptr %5, align 8
  %11 = icmp eq ptr %10, null
  br i1 %11, label %15, label %12

12:                                               ; preds = %2
  %13 = load ptr, ptr %4, align 8
  %14 = icmp eq ptr %13, null
  br i1 %14, label %15, label %16

15:                                               ; preds = %12, %2
  store i32 0, ptr %3, align 4
  br label %74

16:                                               ; preds = %12
  %17 = load ptr, ptr %5, align 8
  %18 = call i64 @strlen(ptr noundef %17) #8
  %19 = trunc i64 %18 to i32
  store i32 %19, ptr %6, align 4
  %20 = load ptr, ptr %5, align 8
  %21 = getelementptr inbounds i8, ptr %20, i64 0
  %22 = load i8, ptr %21, align 1
  %23 = sext i8 %22 to i32
  %24 = icmp ne i32 %23, 42
  br i1 %24, label %25, label %40

25:                                               ; preds = %16
  %26 = load ptr, ptr %5, align 8
  %27 = load i32, ptr %6, align 4
  %28 = sub nsw i32 %27, 1
  %29 = sext i32 %28 to i64
  %30 = getelementptr inbounds i8, ptr %26, i64 %29
  %31 = load i8, ptr %30, align 1
  %32 = sext i8 %31 to i32
  %33 = icmp ne i32 %32, 42
  br i1 %33, label %34, label %40

34:                                               ; preds = %25
  %35 = load ptr, ptr %5, align 8
  %36 = load ptr, ptr %4, align 8
  %37 = call i32 @strcmp(ptr noundef %35, ptr noundef %36) #8
  %38 = icmp eq i32 %37, 0
  %39 = zext i1 %38 to i32
  store i32 %39, ptr %3, align 4
  br label %74

40:                                               ; preds = %25, %16
  %41 = load i32, ptr %6, align 4
  %42 = sub nsw i32 %41, 1
  store i32 %42, ptr %7, align 4
  %43 = load ptr, ptr %4, align 8
  %44 = call i64 @strlen(ptr noundef %43) #8
  %45 = trunc i64 %44 to i32
  %46 = load i32, ptr %7, align 4
  %47 = sub nsw i32 %45, %46
  store i32 %47, ptr %9, align 4
  %48 = load i32, ptr %9, align 4
  %49 = icmp slt i32 %48, 0
  br i1 %49, label %50, label %51

50:                                               ; preds = %40
  store i32 0, ptr %3, align 4
  br label %74

51:                                               ; preds = %40
  %52 = load ptr, ptr %5, align 8
  %53 = getelementptr inbounds i8, ptr %52, i64 0
  %54 = load i8, ptr %53, align 1
  %55 = sext i8 %54 to i32
  %56 = icmp eq i32 %55, 42
  br i1 %56, label %57, label %64

57:                                               ; preds = %51
  %58 = load ptr, ptr %5, align 8
  %59 = getelementptr inbounds i8, ptr %58, i32 1
  store ptr %59, ptr %5, align 8
  %60 = load ptr, ptr %4, align 8
  %61 = load i32, ptr %9, align 4
  %62 = sext i32 %61 to i64
  %63 = getelementptr inbounds i8, ptr %60, i64 %62
  store ptr %63, ptr %8, align 8
  br label %66

64:                                               ; preds = %51
  %65 = load ptr, ptr %4, align 8
  store ptr %65, ptr %8, align 8
  br label %66

66:                                               ; preds = %64, %57
  %67 = load ptr, ptr %5, align 8
  %68 = load ptr, ptr %8, align 8
  %69 = load i32, ptr %7, align 4
  %70 = sext i32 %69 to i64
  %71 = call i32 @strncmp(ptr noundef %67, ptr noundef %68, i64 noundef %70) #8
  %72 = icmp eq i32 %71, 0
  %73 = zext i1 %72 to i32
  store i32 %73, ptr %3, align 4
  br label %74

74:                                               ; preds = %66, %50, %34, %15
  %75 = load i32, ptr %3, align 4
  ret i32 %75
}

; Function Attrs: nounwind uwtable
define internal i32 @searchOneSourceName(i32 noundef %0, ptr noundef %1) #0 {
  %3 = alloca i32, align 4
  %4 = alloca i32, align 4
  %5 = alloca ptr, align 8
  %6 = alloca i32, align 4
  %7 = alloca i32, align 4
  %8 = alloca i32, align 4
  store i32 %0, ptr %4, align 4
  store ptr %1, ptr %5, align 8
  %9 = load ptr, ptr @stratumTable, align 8
  %10 = load i32, ptr %4, align 4
  %11 = sext i32 %10 to i64
  %12 = getelementptr inbounds %struct.StratumTableRecord, ptr %9, i64 %11
  %13 = getelementptr inbounds %struct.StratumTableRecord, ptr %12, i32 0, i32 1
  %14 = load i32, ptr %13, align 8
  store i32 %14, ptr %6, align 4
  %15 = load ptr, ptr @stratumTable, align 8
  %16 = load i32, ptr %4, align 4
  %17 = add nsw i32 %16, 1
  %18 = sext i32 %17 to i64
  %19 = getelementptr inbounds %struct.StratumTableRecord, ptr %15, i64 %18
  %20 = getelementptr inbounds %struct.StratumTableRecord, ptr %19, i32 0, i32 1
  %21 = load i32, ptr %20, align 8
  store i32 %21, ptr %7, align 4
  %22 = load i32, ptr %6, align 4
  store i32 %22, ptr %8, align 4
  br label %23

23:                                               ; preds = %39, %2
  %24 = load i32, ptr %8, align 4
  %25 = load i32, ptr %7, align 4
  %26 = icmp slt i32 %24, %25
  br i1 %26, label %27, label %42

27:                                               ; preds = %23
  %28 = load ptr, ptr @fileTable, align 8
  %29 = load i32, ptr %8, align 4
  %30 = sext i32 %29 to i64
  %31 = getelementptr inbounds %struct.FileTableRecord, ptr %28, i64 %30
  %32 = getelementptr inbounds %struct.FileTableRecord, ptr %31, i32 0, i32 1
  %33 = load ptr, ptr %32, align 8
  %34 = load ptr, ptr %5, align 8
  %35 = call i32 @patternMatch(ptr noundef %33, ptr noundef %34)
  %36 = icmp ne i32 %35, 0
  br i1 %36, label %37, label %38

37:                                               ; preds = %27
  store i32 1, ptr %3, align 4
  br label %43

38:                                               ; preds = %27
  br label %39

39:                                               ; preds = %38
  %40 = load i32, ptr %8, align 4
  %41 = add nsw i32 %40, 1
  store i32 %41, ptr %8, align 4
  br label %23, !llvm.loop !8

42:                                               ; preds = %23
  store i32 0, ptr %3, align 4
  br label %43

43:                                               ; preds = %42, %37
  %44 = load i32, ptr %3, align 4
  ret i32 %44
}

; Function Attrs: nounwind uwtable
define internal zeroext i8 @isValid() #0 {
  %1 = load i8, ptr @sourceMapIsValid, align 1
  ret i8 %1
}

; Function Attrs: nounwind uwtable
define hidden i32 @searchAllSourceNames(ptr noundef %0, ptr noundef %1, ptr noundef %2) #0 {
  %4 = alloca i32, align 4
  %5 = alloca ptr, align 8
  %6 = alloca ptr, align 8
  %7 = alloca ptr, align 8
  %8 = alloca i32, align 4
  store ptr %0, ptr %5, align 8
  store ptr %1, ptr %6, align 8
  store ptr %2, ptr %7, align 8
  %9 = load ptr, ptr %5, align 8
  %10 = load ptr, ptr %6, align 8
  call void @loadDebugInfo(ptr noundef %9, ptr noundef %10)
  %11 = call zeroext i8 @isValid()
  %12 = icmp ne i8 %11, 0
  br i1 %12, label %14, label %13

13:                                               ; preds = %3
  store i32 0, ptr %4, align 4
  br label %31

14:                                               ; preds = %3
  store i32 0, ptr %8, align 4
  br label %15

15:                                               ; preds = %27, %14
  %16 = load i32, ptr %8, align 4
  %17 = load i32, ptr @stratumIndex, align 4
  %18 = sub nsw i32 %17, 1
  %19 = icmp slt i32 %16, %18
  br i1 %19, label %20, label %30

20:                                               ; preds = %15
  %21 = load i32, ptr %8, align 4
  %22 = load ptr, ptr %7, align 8
  %23 = call i32 @searchOneSourceName(i32 noundef %21, ptr noundef %22)
  %24 = icmp eq i32 %23, 1
  br i1 %24, label %25, label %26

25:                                               ; preds = %20
  store i32 1, ptr %4, align 4
  br label %31

26:                                               ; preds = %20
  br label %27

27:                                               ; preds = %26
  %28 = load i32, ptr %8, align 4
  %29 = add nsw i32 %28, 1
  store i32 %29, ptr %8, align 4
  br label %15, !llvm.loop !6

30:                                               ; preds = %15
  store i32 0, ptr %4, align 4
  br label %31

31:                                               ; preds = %30, %25, %13
  %32 = load i32, ptr %4, align 4
  ret i32 %32
}