; Function Attrs: nounwind uwtable
define hidden range(i32 0, 2) i32 @searchAllSourceNames(ptr noundef %0, ptr noundef %1, ptr noundef readonly %2) local_unnamed_addr #0 {
  tail call fastcc void @loadDebugInfo(ptr noundef %0, ptr noundef %1)
  %.b.i = load i1, ptr @sourceMapIsValid, align 1
  br i1 %.b.i, label %.preheader, label %searchOneSourceName.exit

.preheader:                                       ; preds = %3
  %4 = load i32, ptr @stratumIndex, align 4
  %5 = add i32 %4, -1
  %6 = icmp sgt i32 %4, 1
  br i1 %6, label %.lr.ph, label %searchOneSourceName.exit

.lr.ph:                                           ; preds = %.preheader
  %7 = load ptr, ptr @stratumTable, align 8
  %invariant.gep = getelementptr i8, ptr %7, i64 24
  %8 = load ptr, ptr @fileTable, align 8
  %9 = icmp eq ptr %2, null
  br i1 %9, label %searchOneSourceName.exit, label %.lr.ph.split.preheader

.lr.ph.split.preheader:                           ; preds = %.lr.ph
  %wide.trip.count = zext nneg i32 %5 to i64
  br label %.lr.ph.split

.lr.ph.split:                                     ; preds = %.lr.ph.split.preheader, %.loopexit
  %indvars.iv = phi i64 [ 0, %.lr.ph.split.preheader ], [ %indvars.iv.next, %.loopexit ]
  %10 = getelementptr inbounds %struct.StratumTableRecord, ptr %7, i64 %indvars.iv, i32 1
  %11 = load i32, ptr %10, align 8
  %gep = getelementptr %struct.StratumTableRecord, ptr %invariant.gep, i64 %indvars.iv
  %12 = load i32, ptr %gep, align 8
  %13 = icmp slt i32 %11, %12
  br i1 %13, label %.lr.ph.i, label %.loopexit

.lr.ph.i:                                         ; preds = %.lr.ph.split
  %14 = sext i32 %11 to i64
  br label %.lr.ph.split.i

.lr.ph.split.i:                                   ; preds = %patternMatch.exit.thread.i, %.lr.ph.i
  %indvars.iv.i = phi i64 [ %14, %.lr.ph.i ], [ %indvars.iv.next.i, %patternMatch.exit.thread.i ]
  %15 = getelementptr inbounds %struct.FileTableRecord, ptr %8, i64 %indvars.iv.i, i32 1
  %16 = load ptr, ptr %15, align 8
  %17 = icmp eq ptr %16, null
  br i1 %17, label %patternMatch.exit.thread.i, label %18

18:                                               ; preds = %.lr.ph.split.i
  %19 = tail call i64 @strlen(ptr noundef nonnull readonly dereferenceable(1) %2) #10
  %20 = trunc i64 %19 to i32
  %21 = load i8, ptr %2, align 1
  %.not.i.i = icmp eq i8 %21, 42
  br i1 %.not.i.i, label %29, label %22

22:                                               ; preds = %18
  %23 = shl i64 %19, 32
  %sext.i.i = add i64 %23, -4294967296
  %24 = ashr exact i64 %sext.i.i, 32
  %25 = getelementptr inbounds i8, ptr %2, i64 %24
  %26 = load i8, ptr %25, align 1
  %.not26.i.i = icmp eq i8 %26, 42
  br i1 %.not26.i.i, label %29, label %27

27:                                               ; preds = %22
  %28 = tail call i32 @strcmp(ptr noundef nonnull readonly dereferenceable(1) %2, ptr noundef nonnull readonly dereferenceable(1) %16) #10
  br label %patternMatch.exit.i

29:                                               ; preds = %22, %18
  %30 = add nsw i32 %20, -1
  %31 = tail call i64 @strlen(ptr noundef nonnull readonly dereferenceable(1) %16) #10
  %32 = trunc i64 %31 to i32
  %33 = sub nsw i32 %32, %30
  %34 = icmp slt i32 %33, 0
  br i1 %34, label %patternMatch.exit.thread.i, label %35

35:                                               ; preds = %29
  %36 = zext nneg i32 %33 to i64
  %.022.idx.i.i = zext i1 %.not.i.i to i64
  %.022.i.i = getelementptr inbounds i8, ptr %2, i64 %.022.idx.i.i
  %.021.idx.i.i = select i1 %.not.i.i, i64 %36, i64 0
  %.021.i.i = getelementptr inbounds i8, ptr %16, i64 %.021.idx.i.i
  %37 = sext i32 %30 to i64
  %38 = tail call i32 @strncmp(ptr noundef nonnull readonly %.022.i.i, ptr noundef nonnull readonly %.021.i.i, i64 noundef %37) #10
  br label %patternMatch.exit.i

patternMatch.exit.i:                              ; preds = %35, %27
  %.0.shrunk.i.in.i = phi i32 [ %28, %27 ], [ %38, %35 ]
  %.0.shrunk.i.not.i = icmp eq i32 %.0.shrunk.i.in.i, 0
  br i1 %.0.shrunk.i.not.i, label %searchOneSourceName.exit, label %patternMatch.exit.thread.i

patternMatch.exit.thread.i:                       ; preds = %patternMatch.exit.i, %29, %.lr.ph.split.i
  %indvars.iv.next.i = add nsw i64 %indvars.iv.i, 1
  %lftr.wideiv.i = trunc i64 %indvars.iv.next.i to i32
  %exitcond.not.i = icmp eq i32 %12, %lftr.wideiv.i
  br i1 %exitcond.not.i, label %.loopexit, label %.lr.ph.split.i, !llvm.loop !6

.loopexit:                                        ; preds = %patternMatch.exit.thread.i, %.lr.ph.split
  %indvars.iv.next = add nuw nsw i64 %indvars.iv, 1
  %exitcond.not = icmp eq i64 %indvars.iv.next, %wide.trip.count
  br i1 %exitcond.not, label %searchOneSourceName.exit, label %.lr.ph.split, !llvm.loop !8

searchOneSourceName.exit:                         ; preds = %.loopexit, %patternMatch.exit.i, %.lr.ph, %.preheader, %3
  %.06 = phi i32 [ 0, %3 ], [ 0, %.preheader ], [ 0, %.lr.ph ], [ 1, %patternMatch.exit.i ], [ 0, %.loopexit ]
  ret i32 %.06
}